; Function Attrs: nounwind uwtable
define ptr @l_Lean_Meta_Grind_Arith_CommRing_DiseqCnstr_denoteExpr___rarg(ptr noundef %0, ptr noundef %1, ptr noundef readonly captures(none) %2) local_unnamed_addr #0 {
  %4 = getelementptr inbounds nuw i8, ptr %0, i64 16
  %5 = load ptr, ptr %4, align 8, !tbaa !11
  %6 = ptrtoint ptr %5 to i64
  %7 = and i64 %6, 1
  %.not = icmp eq i64 %7, 0
  br i1 %.not, label %8, label %lean_inc.exit21

8:                                                ; preds = %3
  %.val.i = load i32, ptr %5, align 4, !tbaa !6
  %9 = icmp sgt i32 %.val.i, 0
  br i1 %9, label %10, label %12, !prof !5

10:                                               ; preds = %8
  %11 = add nuw i32 %.val.i, 1
  store i32 %11, ptr %5, align 4, !tbaa !6
  br label %lean_inc.exit21

12:                                               ; preds = %8
  %.not.i = icmp eq i32 %.val.i, 0
  br i1 %.not.i, label %lean_inc.exit21, label %13

13:                                               ; preds = %12
  tail call void @lean_inc_ref_cold(ptr noundef nonnull %5) #3
  br label %lean_inc.exit21

lean_inc.exit21:                                  ; preds = %13, %12, %10, %3
  %14 = getelementptr inbounds nuw i8, ptr %2, i64 40
  %15 = load ptr, ptr %14, align 8, !tbaa !11
  %16 = ptrtoint ptr %1 to i64
  %17 = and i64 %16, 1
  %.not31 = icmp eq i64 %17, 0
  br i1 %.not31, label %18, label %lean_inc.exit20

18:                                               ; preds = %lean_inc.exit21
  %.val.i22 = load i32, ptr %1, align 4, !tbaa !6
  %19 = icmp sgt i32 %.val.i22, 0
  br i1 %19, label %20, label %22, !prof !5

20:                                               ; preds = %18
  %21 = add nuw i32 %.val.i22, 1
  store i32 %21, ptr %1, align 4, !tbaa !6
  br label %lean_inc.exit20

22:                                               ; preds = %18
  %.not.i23 = icmp eq i32 %.val.i22, 0
  br i1 %.not.i23, label %lean_inc.exit20, label %23

23:                                               ; preds = %22
  tail call void @lean_inc_ref_cold(ptr noundef nonnull %1) #3
  br label %lean_inc.exit20

lean_inc.exit20:                                  ; preds = %23, %22, %20, %lean_inc.exit21
  %24 = ptrtoint ptr %0 to i64
  %25 = and i64 %24, 1
  %.not32 = icmp eq i64 %25, 0
  br i1 %.not32, label %26, label %lean_inc.exit19

26:                                               ; preds = %lean_inc.exit20
  %.val.i25 = load i32, ptr %0, align 4, !tbaa !6
  %27 = icmp sgt i32 %.val.i25, 0
  br i1 %27, label %28, label %30, !prof !5

28:                                               ; preds = %26
  %29 = add nuw i32 %.val.i25, 1
  store i32 %29, ptr %0, align 4, !tbaa !6
  br label %lean_inc.exit19

30:                                               ; preds = %26
  %.not.i26 = icmp eq i32 %.val.i25, 0
  br i1 %.not.i26, label %lean_inc.exit19, label %31

31:                                               ; preds = %30
  tail call void @lean_inc_ref_cold(ptr noundef nonnull %0) #3
  br label %lean_inc.exit19

lean_inc.exit19:                                  ; preds = %31, %30, %28, %lean_inc.exit20
  %32 = tail call ptr @l_Lean_Meta_Grind_Arith_CommRing_PolyDerivation_p(ptr noundef %15) #3
  %33 = tail call ptr @l_Lean_Grind_CommRing_Poly_denoteExpr___rarg(ptr noundef nonnull %0, ptr noundef %1, ptr noundef %32)
  br i1 %.not, label %34, label %lean_inc.exit

34:                                               ; preds = %lean_inc.exit19
  %.val.i28 = load i32, ptr %5, align 4, !tbaa !6
  %35 = icmp sgt i32 %.val.i28, 0
  br i1 %35, label %36, label %38, !prof !5

36:                                               ; preds = %34
  %37 = add nuw i32 %.val.i28, 1
  store i32 %37, ptr %5, align 4, !tbaa !6
  br label %lean_inc.exit

38:                                               ; preds = %34
  %.not.i29 = icmp eq i32 %.val.i28, 0
  br i1 %.not.i29, label %lean_inc.exit, label %39

39:                                               ; preds = %38
  tail call void @lean_inc_ref_cold(ptr noundef nonnull %5) #3
  br label %lean_inc.exit

lean_inc.exit:                                    ; preds = %39, %38, %36, %lean_inc.exit19
  tail call void @lean_inc_heartbeat() #3
  %40 = tail call noalias ptr @mi_malloc_small(i64 noundef 48) #3
  %41 = icmp eq ptr %40, null
  br i1 %41, label %42, label %lean_alloc_closure.exit

42:                                               ; preds = %lean_inc.exit
  tail call void @lean_internal_panic_out_of_memory() #4
  unreachable

lean_alloc_closure.exit:                          ; preds = %lean_inc.exit
  %43 = getelementptr inbounds nuw i8, ptr %40, i64 4
  store i32 1, ptr %40, align 4, !tbaa !6
  store i32 -184549328, ptr %43, align 4
  %44 = getelementptr inbounds nuw i8, ptr %40, i64 8
  store ptr @l_Lean_Meta_Grind_Arith_CommRing_DiseqCnstr_denoteExpr___rarg___lambda__3, ptr %44, align 8, !tbaa !11
  %45 = getelementptr inbounds nuw i8, ptr %40, i64 16
  store i16 4, ptr %45, align 8, !tbaa !13
  %46 = getelementptr inbounds nuw i8, ptr %40, i64 18
  store i16 3, ptr %46, align 2, !tbaa !13
  %47 = getelementptr inbounds nuw i8, ptr %40, i64 24
  store ptr %0, ptr %47, align 8, !tbaa !11
  %48 = getelementptr inbounds nuw i8, ptr %40, i64 32
  store ptr %1, ptr %48, align 8, !tbaa !11
  %49 = getelementptr inbounds nuw i8, ptr %40, i64 40
  store ptr %5, ptr %49, align 8, !tbaa !11
  %50 = tail call ptr @lean_apply_4(ptr noundef %5, ptr noundef nonnull inttoptr (i64 1 to ptr), ptr noundef nonnull inttoptr (i64 1 to ptr), ptr noundef %33, ptr noundef nonnull %40) #3
  ret ptr %50
}